; Function Attrs: mustprogress nofree norecurse nosync nounwind willreturn memory(argmem: read) uwtable
define noundef signext i8 @_ZNK6icu_7518TransliteratorSpec11hasFallbackEv(ptr nocapture noundef nonnull readonly align 8 dereferenceable(280) %this) local_unnamed_addr #8 align 2 {
entry:
  %fUnion.i.i = getelementptr inbounds i8, ptr %this, i64 144
  %0 = load i16, ptr %fUnion.i.i, align 8
  %cmp.i.i = icmp slt i16 %0, 0
  %1 = ashr i16 %0, 5
  %shr.i.i = sext i16 %1 to i32
  %fLength.i = getelementptr inbounds i8, ptr %this, i64 148
  %2 = load i32, ptr %fLength.i, align 4
  %cond.i = select i1 %cmp.i.i, i32 %2, i32 %shr.i.i
  %cmp = icmp ne i32 %cond.i, 0
  %conv = zext i1 %cmp to i8
  ret i8 %conv
}